target datalayout = "e-m:e-p270:32:32-p271:32:32-p272:64:64-i64:64-i128:128-f80:128-n8:16:32:64-S128"
target triple = "x86_64-pc-linux-gnu"

%"struct.boost::log::v2_mt_posix::record_view::private_data" = type <{ %"struct.boost::log::v2_mt_posix::record_view::public_data", i32, i32, i8, [7 x i8] }>
%"struct.boost::log::v2_mt_posix::record_view::public_data" = type { %"class.boost::atomics::atomic", %"class.boost::log::v2_mt_posix::attribute_value_set" }
%"class.boost::atomics::atomic" = type { %"class.boost::atomics::detail::base_atomic" }
%"class.boost::atomics::detail::base_atomic" = type { %"class.boost::atomics::detail::base_atomic_common" }
%"class.boost::atomics::detail::base_atomic_common" = type { i32 }
%"class.boost::log::v2_mt_posix::attribute_value_set" = type { ptr }
%"class.boost::weak_ptr" = type { ptr, %"class.boost::detail::weak_count" }
%"class.boost::detail::weak_count" = type { ptr }
%"class.boost::detail::sp_counted_base" = type { ptr, i32, i32 }

; Function Attrs: inlinehint mustprogress nounwind uwtable
define linkonce_odr hidden noundef i32 @_ZN5boost6detail16atomic_decrementEPj(ptr noundef %0) #7 comdat {
  %2 = alloca ptr, align 8
  %3 = alloca i32, align 4
  %4 = alloca i32, align 4
  store ptr %0, ptr %2, align 8, !tbaa !3
  %5 = load ptr, ptr %2, align 8, !tbaa !3
  store i32 1, ptr %3, align 4, !tbaa !7
  %6 = load i32, ptr %3, align 4
  %7 = atomicrmw sub ptr %5, i32 %6 acq_rel, align 4
  store i32 %7, ptr %4, align 4
  %8 = load i32, ptr %4, align 4, !tbaa !7
  ret i32 %8
}

; Function Attrs: mustprogress uwtable
define linkonce_odr hidden void @_ZN5boost6detail15sp_counted_base12weak_releaseEv(ptr noundef nonnull align 8 dereferenceable(16) %0) #3 comdat align 2 {
  %2 = alloca ptr, align 8
  store ptr %0, ptr %2, align 8, !tbaa !3
  %3 = load ptr, ptr %2, align 8
  %4 = getelementptr inbounds nuw %"class.boost::detail::sp_counted_base", ptr %3, i32 0, i32 2
  %5 = call noundef i32 @_ZN5boost6detail16atomic_decrementEPj(ptr noundef %4)
  %6 = icmp eq i32 %5, 1
  br i1 %6, label %7, label %11

7:                                                ; preds = %1
  %8 = load ptr, ptr %3, align 8, !tbaa !28
  %9 = getelementptr inbounds ptr, ptr %8, i64 3
  %10 = load ptr, ptr %9, align 8
  call void %10(ptr noundef nonnull align 8 dereferenceable(16) %3)
  br label %11

11:                                               ; preds = %7, %1
  ret void
}

; Function Attrs: mustprogress nounwind uwtable
define linkonce_odr hidden void @_ZN5boost6detail10weak_countD2Ev(ptr noundef nonnull align 8 dereferenceable(8) %0) unnamed_addr #2 comdat align 2 personality ptr @__gxx_personality_v0 {
  %2 = alloca ptr, align 8
  store ptr %0, ptr %2, align 8, !tbaa !3
  %3 = load ptr, ptr %2, align 8
  %4 = getelementptr inbounds nuw %"class.boost::detail::weak_count", ptr %3, i32 0, i32 0
  %5 = load ptr, ptr %4, align 8, !tbaa !77
  %6 = icmp ne ptr %5, null
  br i1 %6, label %7, label %11

7:                                                ; preds = %1
  %8 = getelementptr inbounds nuw %"class.boost::detail::weak_count", ptr %3, i32 0, i32 0
  %9 = load ptr, ptr %8, align 8, !tbaa !77
  invoke void @_ZN5boost6detail15sp_counted_base12weak_releaseEv(ptr noundef nonnull align 8 dereferenceable(16) %9)
          to label %10 unwind label %12

10:                                               ; preds = %7
  br label %11

11:                                               ; preds = %10, %1
  ret void

12:                                               ; preds = %7
  %13 = landingpad { ptr, i32 }
          catch ptr null
  %14 = extractvalue { ptr, i32 } %13, 0
  call void @__clang_call_terminate(ptr %14) #20
  unreachable
}

; Function Attrs: mustprogress nounwind uwtable
define linkonce_odr hidden void @_ZN5boost3log11v2_mt_posix3aux19stateless_allocatorIcE10deallocateEPcm(ptr noundef %0, i64 noundef %1) #2 comdat align 2 {
  %3 = alloca ptr, align 8
  %4 = alloca i64, align 8
  store ptr %0, ptr %3, align 8, !tbaa !3
  store i64 %1, ptr %4, align 8, !tbaa !71
  %5 = load ptr, ptr %3, align 8, !tbaa !3
  call void @free(ptr noundef %5) #17
  ret void
}

; Function Attrs: mustprogress nounwind uwtable
define linkonce_odr hidden void @_ZN5boost3log11v2_mt_posix11record_view11public_dataD2Ev(ptr noundef nonnull align 8 dereferenceable(16) %0) unnamed_addr #2 comdat align 2 {
  %2 = alloca ptr, align 8
  store ptr %0, ptr %2, align 8, !tbaa !3
  %3 = load ptr, ptr %2, align 8
  %4 = getelementptr inbounds nuw %"struct.boost::log::v2_mt_posix::record_view::public_data", ptr %3, i32 0, i32 1
  call void @_ZN5boost3log11v2_mt_posix19attribute_value_setD1Ev(ptr noundef nonnull align 8 dereferenceable(8) %4) #17
  ret void
}

; Function Attrs: inlinehint mustprogress nounwind uwtable
define linkonce_odr hidden void @_ZN5boost8weak_ptrINS_3log11v2_mt_posix5sinks4sinkEED2Ev(ptr noundef nonnull align 8 dereferenceable(16) %0) unnamed_addr #7 comdat align 2 {
  %2 = alloca ptr, align 8
  store ptr %0, ptr %2, align 8, !tbaa !3
  %3 = load ptr, ptr %2, align 8
  %4 = getelementptr inbounds nuw %"class.boost::weak_ptr", ptr %3, i32 0, i32 1
  call void @_ZN5boost6detail10weak_countD2Ev(ptr noundef nonnull align 8 dereferenceable(8) %4) #17
  ret void
}

; Function Attrs: mustprogress nounwind uwtable
define linkonce_odr hidden noundef ptr @_ZN5boost3log11v2_mt_posix11record_view12private_data5beginEv(ptr noundef nonnull align 8 dereferenceable(25) %0) #2 comdat align 2 {
  %2 = alloca ptr, align 8
  store ptr %0, ptr %2, align 8, !tbaa !3
  %3 = load ptr, ptr %2, align 8
  %4 = getelementptr inbounds nuw i8, ptr %3, i64 32
  %5 = getelementptr inbounds i8, ptr %4, i64 0
  ret ptr %5
}

; Function Attrs: mustprogress nounwind uwtable
define linkonce_odr hidden void @_ZN5boost3log11v2_mt_posix11record_view12private_data7destroyEv(ptr noundef nonnull align 8 dereferenceable(25) %0) #2 comdat align 2 personality ptr @__gxx_personality_v0 {
  %2 = alloca ptr, align 8
  %3 = alloca ptr, align 8
  %4 = alloca i32, align 4
  %5 = alloca i32, align 4
  %6 = alloca i32, align 4
  store ptr %0, ptr %2, align 8, !tbaa !3
  %7 = load ptr, ptr %2, align 8
  call void @llvm.lifetime.start.p0(i64 8, ptr %3) #17
  %8 = call noundef ptr @_ZN5boost3log11v2_mt_posix11record_view12private_data5beginEv(ptr noundef nonnull align 8 dereferenceable(25) %7) #17
  store ptr %8, ptr %3, align 8, !tbaa !3
  call void @llvm.lifetime.start.p0(i64 4, ptr %4) #17
  store i32 0, ptr %4, align 4, !tbaa !7
  call void @llvm.lifetime.start.p0(i64 4, ptr %5) #17
  %9 = getelementptr inbounds nuw %"struct.boost::log::v2_mt_posix::record_view::private_data", ptr %7, i32 0, i32 1
  %10 = load i32, ptr %9, align 8, !tbaa !9
  store i32 %10, ptr %5, align 4, !tbaa !7
  br label %11

11:                                               ; preds = %21, %1
  %12 = load i32, ptr %4, align 4, !tbaa !7
  %13 = load i32, ptr %5, align 4, !tbaa !7
  %14 = icmp ult i32 %12, %13
  br i1 %14, label %16, label %15

15:                                               ; preds = %11
  call void @llvm.lifetime.end.p0(i64 4, ptr %5) #17
  call void @llvm.lifetime.end.p0(i64 4, ptr %4) #17
  br label %24

16:                                               ; preds = %11
  %17 = load ptr, ptr %3, align 8, !tbaa !3
  %18 = load i32, ptr %4, align 4, !tbaa !7
  %19 = zext i32 %18 to i64
  %20 = getelementptr inbounds nuw %"class.boost::weak_ptr", ptr %17, i64 %19
  call void @_ZN5boost8weak_ptrINS_3log11v2_mt_posix5sinks4sinkEED2Ev(ptr noundef nonnull align 8 dereferenceable(16) %20) #17
  br label %21

21:                                               ; preds = %16
  %22 = load i32, ptr %4, align 4, !tbaa !7
  %23 = add i32 %22, 1
  store i32 %23, ptr %4, align 4, !tbaa !7
  br label %11, !llvm.loop !17

24:                                               ; preds = %15
  call void @llvm.lifetime.start.p0(i64 4, ptr %6) #17
  %25 = getelementptr inbounds nuw %"struct.boost::log::v2_mt_posix::record_view::private_data", ptr %7, i32 0, i32 2
  %26 = load i32, ptr %25, align 4, !tbaa !19
  store i32 %26, ptr %6, align 4, !tbaa !7
  call void @_ZN5boost3log11v2_mt_posix11record_view11public_dataD2Ev(ptr noundef nonnull align 8 dereferenceable(25) %7) #17
  %27 = load i32, ptr %6, align 4, !tbaa !7
  %28 = zext i32 %27 to i64
  %29 = mul i64 %28, 16
  %30 = add i64 32, %29
  invoke void @_ZN5boost3log11v2_mt_posix3aux19stateless_allocatorIcE10deallocateEPcm(ptr noundef %7, i64 noundef %30)
          to label %31 unwind label %32

31:                                               ; preds = %24
  call void @llvm.lifetime.end.p0(i64 4, ptr %6) #17
  call void @llvm.lifetime.end.p0(i64 8, ptr %3) #17
  ret void

32:                                               ; preds = %24
  %33 = landingpad { ptr, i32 }
          catch ptr null
  %34 = extractvalue { ptr, i32 } %33, 0
  call void @__clang_call_terminate(ptr %34) #20
  unreachable
}

; Function Attrs: mustprogress nounwind uwtable
define void @_ZN5boost3log11v2_mt_posix11record_view11public_data7destroyEPKS3_(ptr noundef %0) #2 align 2 {
  %2 = alloca ptr, align 8
  store ptr %0, ptr %2, align 8, !tbaa !3
  %3 = load ptr, ptr %2, align 8, !tbaa !3
  call void @_ZN5boost3log11v2_mt_posix11record_view12private_data7destroyEv(ptr noundef nonnull align 8 dereferenceable(25) %3) #17
  ret void
}