; Function Attrs: mustprogress nounwind uwtable
define void @_ZN5boost3log11v2_mt_posix11record_view11public_data7destroyEPKS3_(ptr noundef %0) local_unnamed_addr #3 align 2 personality ptr @__gxx_personality_v0 {
  %2 = getelementptr inbounds nuw i8, ptr %0, i64 16
  %3 = load i32, ptr %2, align 8, !tbaa !3
  %.not.i = icmp eq i32 %3, 0
  br i1 %.not.i, label %_ZN5boost3log11v2_mt_posix11record_view12private_data7destroyEv.exit, label %.lr.ph.i

.lr.ph.i:                                         ; preds = %1
  %4 = getelementptr i8, ptr %0, i64 40
  %wide.trip.count.i = zext i32 %3 to i64
  br label %5

5:                                                ; preds = %_ZN5boost8weak_ptrINS_3log11v2_mt_posix5sinks4sinkEED2Ev.exit.i, %.lr.ph.i
  %indvars.iv.i = phi i64 [ 0, %.lr.ph.i ], [ %indvars.iv.next.i, %_ZN5boost8weak_ptrINS_3log11v2_mt_posix5sinks4sinkEED2Ev.exit.i ]
  %.idx.i = shl nuw nsw i64 %indvars.iv.i, 4
  %6 = getelementptr i8, ptr %4, i64 %.idx.i
  %7 = load ptr, ptr %6, align 8, !tbaa !15
  %.not.i.i.i = icmp eq ptr %7, null
  br i1 %.not.i.i.i, label %_ZN5boost8weak_ptrINS_3log11v2_mt_posix5sinks4sinkEED2Ev.exit.i, label %8

8:                                                ; preds = %5
  %9 = getelementptr inbounds nuw i8, ptr %7, i64 12
  %10 = atomicrmw sub ptr %9, i32 1 acq_rel, align 4
  %11 = icmp eq i32 %10, 1
  br i1 %11, label %12, label %_ZN5boost8weak_ptrINS_3log11v2_mt_posix5sinks4sinkEED2Ev.exit.i

12:                                               ; preds = %8
  %13 = load ptr, ptr %7, align 8, !tbaa !17
  %14 = getelementptr inbounds i8, ptr %13, i64 24
  %15 = load ptr, ptr %14, align 8
  invoke void %15(ptr noundef nonnull align 8 dereferenceable(16) %7)
          to label %_ZN5boost8weak_ptrINS_3log11v2_mt_posix5sinks4sinkEED2Ev.exit.i unwind label %16

16:                                               ; preds = %12
  %17 = landingpad { ptr, i32 }
          catch ptr null
  %18 = extractvalue { ptr, i32 } %17, 0
  tail call void @__clang_call_terminate(ptr %18) #22
  unreachable

_ZN5boost8weak_ptrINS_3log11v2_mt_posix5sinks4sinkEED2Ev.exit.i: ; preds = %12, %8, %5
  %indvars.iv.next.i = add nuw nsw i64 %indvars.iv.i, 1
  %exitcond.not.i = icmp eq i64 %indvars.iv.next.i, %wide.trip.count.i
  br i1 %exitcond.not.i, label %_ZN5boost3log11v2_mt_posix11record_view12private_data7destroyEv.exit, label %5, !llvm.loop !19

_ZN5boost3log11v2_mt_posix11record_view12private_data7destroyEv.exit: ; preds = %_ZN5boost8weak_ptrINS_3log11v2_mt_posix5sinks4sinkEED2Ev.exit.i, %1
  %19 = getelementptr inbounds nuw i8, ptr %0, i64 8
  tail call void @_ZN5boost3log11v2_mt_posix19attribute_value_setD1Ev(ptr noundef nonnull align 8 dereferenceable(8) %19) #21
  tail call void @free(ptr noundef nonnull align 8 dereferenceable(25) %0) #21
  ret void
}